; Function Attrs: mustprogress uwtable
define hidden void @_ZN4cvc58internal13FloatingPointC2EjjRKNS0_9BitVectorE(ptr noundef nonnull writeonly align 8 captures(none) dereferenceable(8) %0, i32 noundef %1, i32 noundef %2, ptr noundef nonnull align 8 dereferenceable(24) %3) unnamed_addr #3 align 2 personality ptr @__gxx_personality_v0 {
  %5 = tail call noalias noundef nonnull dereferenceable(64) ptr @_Znwm(i64 noundef 64) #17
  invoke void @_ZN4cvc58internal20FloatingPointLiteralC1EjjRKNS0_9BitVectorE(ptr noundef nonnull align 8 dereferenceable(64) %5, i32 noundef %1, i32 noundef %2, ptr noundef nonnull align 8 dereferenceable(24) %3)
          to label %6 unwind label %7

6:                                                ; preds = %4
  store ptr %5, ptr %0, align 8, !tbaa !3
  ret void

7:                                                ; preds = %4
  %8 = landingpad { ptr, i32 }
          cleanup
  tail call void @_ZdlPvm(ptr noundef nonnull %5, i64 noundef 64) #18
  resume { ptr, i32 } %8
}